; Function Attrs: nounwind uwtable
define hidden zeroext i1 @SDL_DisableScreenSaver_REAL() local_unnamed_addr #0 {
  %1 = load ptr, ptr @_this, align 8
  %.not = icmp eq ptr %1, null
  br i1 %.not, label %2, label %4

2:                                                ; preds = %0
  %3 = tail call zeroext i1 (ptr, ...) @SDL_SetError_REAL(ptr noundef nonnull @.str.1) #19
  br label %15

4:                                                ; preds = %0
  %5 = getelementptr inbounds nuw i8, ptr %1, i64 786
  %6 = load i8, ptr %5, align 2, !range !6, !noundef !7
  %7 = trunc nuw i8 %6 to i1
  br i1 %7, label %15, label %8

8:                                                ; preds = %4
  store i8 1, ptr %5, align 2
  %9 = getelementptr inbounds nuw i8, ptr %1, i64 584
  %10 = load ptr, ptr %9, align 8
  %.not3 = icmp eq ptr %10, null
  br i1 %.not3, label %13, label %11

11:                                               ; preds = %8
  %12 = tail call zeroext i1 %10(ptr noundef nonnull %1) #19
  br label %15

13:                                               ; preds = %8
  %14 = tail call zeroext i1 (ptr, ...) @SDL_SetError_REAL(ptr noundef nonnull @.str.24) #19
  br label %15

15:                                               ; preds = %4, %13, %11, %2
  %.0 = phi i1 [ %12, %11 ], [ %14, %13 ], [ %3, %2 ], [ true, %4 ]
  ret i1 %.0
}